; Function Attrs: mustprogress uwtable
define hidden noundef i32 @_ZN4cvc58internal7options21stringToPartitionModeERKNSt7__cxx1112basic_stringIcSt11char_traitsIcESaIcEEE(ptr noundef nonnull align 8 dereferenceable(32) %optarg) local_unnamed_addr #3 personality ptr @__gxx_personality_v0 {
entry:
  %ref.tmp = alloca %"class.std::__cxx11::basic_string", align 8
  %ref.tmp25 = alloca %"class.std::__cxx11::basic_string", align 8
  %ref.tmp26 = alloca %"class.std::__cxx11::basic_string", align 8
  %ref.tmp27 = alloca %"class.std::allocator", align 1
  %call.i = tail call noundef i32 @_ZNKSt7__cxx1112basic_stringIcSt11char_traitsIcESaIcEE7compareEPKc(ptr noundef nonnull align 8 dereferenceable(32) %optarg, ptr noundef nonnull @.str.8) #12
  %cmp.i = icmp eq i32 %call.i, 0
  br i1 %cmp.i, label %return, label %if.else

if.else:                                          ; preds = %entry
  %call.i11 = tail call noundef i32 @_ZNKSt7__cxx1112basic_stringIcSt11char_traitsIcESaIcEE7compareEPKc(ptr noundef nonnull align 8 dereferenceable(32) %optarg, ptr noundef nonnull @.str.9) #12
  %cmp.i12 = icmp eq i32 %call.i11, 0
  br i1 %cmp.i12, label %return, label %if.else3

if.else3:                                         ; preds = %if.else
  %call.i13 = tail call noundef i32 @_ZNKSt7__cxx1112basic_stringIcSt11char_traitsIcESaIcEE7compareEPKc(ptr noundef nonnull align 8 dereferenceable(32) %optarg, ptr noundef nonnull @.str.10) #12
  %cmp.i14 = icmp eq i32 %call.i13, 0
  br i1 %cmp.i14, label %return, label %if.else6

if.else6:                                         ; preds = %if.else3
  %call.i15 = tail call noundef i32 @_ZNKSt7__cxx1112basic_stringIcSt11char_traitsIcESaIcEE7compareEPKc(ptr noundef nonnull align 8 dereferenceable(32) %optarg, ptr noundef nonnull @.str.11) #12
  %cmp.i16 = icmp eq i32 %call.i15, 0
  br i1 %cmp.i16, label %return, label %if.else9

if.else9:                                         ; preds = %if.else6
  %call.i17 = tail call noundef i32 @_ZNKSt7__cxx1112basic_stringIcSt11char_traitsIcESaIcEE7compareEPKc(ptr noundef nonnull align 8 dereferenceable(32) %optarg, ptr noundef nonnull @.str.12) #12
  %cmp.i18 = icmp eq i32 %call.i17, 0
  br i1 %cmp.i18, label %return, label %if.else12

if.else12:                                        ; preds = %if.else9
  %call.i19 = tail call noundef i32 @_ZNKSt7__cxx1112basic_stringIcSt11char_traitsIcESaIcEE7compareEPKc(ptr noundef nonnull align 8 dereferenceable(32) %optarg, ptr noundef nonnull @.str.13) #12
  %cmp.i20 = icmp eq i32 %call.i19, 0
  br i1 %cmp.i20, label %return, label %if.else15

if.else15:                                        ; preds = %if.else12
  %call.i21 = tail call noundef i32 @_ZNKSt7__cxx1112basic_stringIcSt11char_traitsIcESaIcEE7compareEPKc(ptr noundef nonnull align 8 dereferenceable(32) %optarg, ptr noundef nonnull @.str.4) #12
  %cmp.i22 = icmp eq i32 %call.i21, 0
  br i1 %cmp.i22, label %if.then17, label %if.end24

if.then17:                                        ; preds = %if.else15
  %call18 = tail call noundef nonnull align 8 dereferenceable(8) ptr @_ZStlsISt11char_traitsIcEERSt13basic_ostreamIcT_ES5_PKc(ptr noundef nonnull align 8 dereferenceable(8) @_ZSt4cerr, ptr noundef nonnull @.str.14)
  tail call void @exit(i32 noundef 1) #11
  unreachable

if.end24:                                         ; preds = %if.else15
  %exception = tail call ptr @__cxa_allocate_exception(i64 40) #12
  call void @_ZNSaIcEC1Ev(ptr noundef nonnull align 1 dereferenceable(1) %ref.tmp27) #12
  invoke void @_ZNSt7__cxx1112basic_stringIcSt11char_traitsIcESaIcEEC2IS3_EEPKcRKS3_(ptr noundef nonnull align 8 dereferenceable(32) %ref.tmp26, ptr noundef nonnull @.str.15, ptr noundef nonnull align 1 dereferenceable(1) %ref.tmp27)
          to label %invoke.cont unwind label %ehcleanup35.thread

invoke.cont:                                      ; preds = %if.end24
  %call.i2324 = invoke noundef nonnull align 8 dereferenceable(32) ptr @_ZNSt7__cxx1112basic_stringIcSt11char_traitsIcESaIcEE6appendERKS4_(ptr noundef nonnull align 8 dereferenceable(32) %ref.tmp26, ptr noundef nonnull align 8 dereferenceable(32) %optarg)
          to label %invoke.cont29 unwind label %lpad28

invoke.cont29:                                    ; preds = %invoke.cont
  call void @_ZNSt7__cxx1112basic_stringIcSt11char_traitsIcESaIcEEC1EOS4_(ptr noundef nonnull align 8 dereferenceable(32) %ref.tmp25, ptr noundef nonnull align 8 dereferenceable(32) %call.i2324) #12
  %call.i2526 = invoke noundef nonnull align 8 dereferenceable(32) ptr @_ZNSt7__cxx1112basic_stringIcSt11char_traitsIcESaIcEE6appendEPKc(ptr noundef nonnull align 8 dereferenceable(32) %ref.tmp25, ptr noundef nonnull @.str.16)
          to label %invoke.cont31 unwind label %lpad30

invoke.cont31:                                    ; preds = %invoke.cont29
  call void @_ZNSt7__cxx1112basic_stringIcSt11char_traitsIcESaIcEEC1EOS4_(ptr noundef nonnull align 8 dereferenceable(32) %ref.tmp, ptr noundef nonnull align 8 dereferenceable(32) %call.i2526) #12
  invoke void @_ZN4cvc58internal15OptionExceptionC2ERKNSt7__cxx1112basic_stringIcSt11char_traitsIcESaIcEEE(ptr noundef nonnull align 8 dereferenceable(40) %exception, ptr noundef nonnull align 8 dereferenceable(32) %ref.tmp)
          to label %invoke.cont33 unwind label %lpad32

invoke.cont33:                                    ; preds = %invoke.cont31
  invoke void @__cxa_throw(ptr nonnull %exception, ptr nonnull @_ZTIN4cvc58internal15OptionExceptionE, ptr nonnull @_ZN4cvc58internal15OptionExceptionD2Ev) #13
          to label %unreachable unwind label %lpad32

ehcleanup35.thread:                               ; preds = %if.end24
  %0 = landingpad { ptr, i32 }
          cleanup
  call void @_ZNSaIcED1Ev(ptr noundef nonnull align 1 dereferenceable(1) %ref.tmp27) #12
  br label %cleanup.action

lpad28:                                           ; preds = %invoke.cont
  %1 = landingpad { ptr, i32 }
          cleanup
  br label %ehcleanup35

lpad30:                                           ; preds = %invoke.cont29
  %2 = landingpad { ptr, i32 }
          cleanup
  br label %ehcleanup

lpad32:                                           ; preds = %invoke.cont33, %invoke.cont31
  %cleanup.isactive.0 = phi i1 [ false, %invoke.cont33 ], [ true, %invoke.cont31 ]
  %3 = landingpad { ptr, i32 }
          cleanup
  call void @_ZNSt7__cxx1112basic_stringIcSt11char_traitsIcESaIcEED1Ev(ptr noundef nonnull align 8 dereferenceable(32) %ref.tmp) #12
  br label %ehcleanup

ehcleanup:                                        ; preds = %lpad32, %lpad30
  %.pn = phi { ptr, i32 } [ %3, %lpad32 ], [ %2, %lpad30 ]
  %cleanup.isactive.1 = phi i1 [ %cleanup.isactive.0, %lpad32 ], [ true, %lpad30 ]
  call void @_ZNSt7__cxx1112basic_stringIcSt11char_traitsIcESaIcEED1Ev(ptr noundef nonnull align 8 dereferenceable(32) %ref.tmp25) #12
  br label %ehcleanup35

ehcleanup35:                                      ; preds = %lpad28, %ehcleanup
  %.pn.pn = phi { ptr, i32 } [ %.pn, %ehcleanup ], [ %1, %lpad28 ]
  %cleanup.isactive.2 = phi i1 [ %cleanup.isactive.1, %ehcleanup ], [ true, %lpad28 ]
  call void @_ZNSt7__cxx1112basic_stringIcSt11char_traitsIcESaIcEED1Ev(ptr noundef nonnull align 8 dereferenceable(32) %ref.tmp26) #12
  call void @_ZNSaIcED1Ev(ptr noundef nonnull align 1 dereferenceable(1) %ref.tmp27) #12
  br i1 %cleanup.isactive.2, label %cleanup.action, label %eh.resume

cleanup.action:                                   ; preds = %ehcleanup35.thread, %ehcleanup35
  %.pn.pn.pn30 = phi { ptr, i32 } [ %0, %ehcleanup35.thread ], [ %.pn.pn, %ehcleanup35 ]
  call void @__cxa_free_exception(ptr %exception) #12
  br label %eh.resume

return:                                           ; preds = %if.else12, %if.else9, %if.else6, %if.else3, %if.else, %entry
  %retval.0 = phi i32 [ 0, %entry ], [ 1, %if.else ], [ 2, %if.else3 ], [ 3, %if.else6 ], [ 4, %if.else9 ], [ 5, %if.else12 ]
  ret i32 %retval.0

eh.resume:                                        ; preds = %ehcleanup35, %cleanup.action
  %.pn.pn.pn29 = phi { ptr, i32 } [ %.pn.pn, %ehcleanup35 ], [ %.pn.pn.pn30, %cleanup.action ]
  resume { ptr, i32 } %.pn.pn.pn29

unreachable:                                      ; preds = %invoke.cont33
  unreachable
}